target datalayout = "e-m:e-p270:32:32-p271:32:32-p272:64:64-i64:64-i128:128-f80:128-n8:16:32:64-S128"
target triple = "x86_64-pc-linux-gnu"

%struct.PixelFormatTag = type { i32, i32 }

; Function Attrs: nounwind uwtable
define i32 @avcodec_pix_fmt_to_codec_tag(i32 noundef %0) #0 {
  %2 = alloca i32, align 4
  %3 = alloca i32, align 4
  %4 = alloca ptr, align 8
  %5 = alloca i32, align 4
  store i32 %0, ptr %3, align 4, !tbaa !4
  call void @llvm.lifetime.start.p0(i64 8, ptr %4) #2
  store ptr @raw_pix_fmt_tags, ptr %4, align 8, !tbaa !8
  br label %6

6:                                                ; preds = %21, %1
  %7 = load ptr, ptr %4, align 8, !tbaa !8
  %8 = getelementptr inbounds nuw %struct.PixelFormatTag, ptr %7, i32 0, i32 0
  %9 = load i32, ptr %8, align 4, !tbaa !11
  %10 = icmp sge i32 %9, 0
  br i1 %10, label %11, label %24

11:                                               ; preds = %6
  %12 = load ptr, ptr %4, align 8, !tbaa !8
  %13 = getelementptr inbounds nuw %struct.PixelFormatTag, ptr %12, i32 0, i32 0
  %14 = load i32, ptr %13, align 4, !tbaa !11
  %15 = load i32, ptr %3, align 4, !tbaa !4
  %16 = icmp eq i32 %14, %15
  br i1 %16, label %17, label %21

17:                                               ; preds = %11
  %18 = load ptr, ptr %4, align 8, !tbaa !8
  %19 = getelementptr inbounds nuw %struct.PixelFormatTag, ptr %18, i32 0, i32 1
  %20 = load i32, ptr %19, align 4, !tbaa !13
  store i32 %20, ptr %2, align 4
  store i32 1, ptr %5, align 4
  br label %25

21:                                               ; preds = %11
  %22 = load ptr, ptr %4, align 8, !tbaa !8
  %23 = getelementptr inbounds nuw %struct.PixelFormatTag, ptr %22, i32 1
  store ptr %23, ptr %4, align 8, !tbaa !8
  br label %6, !llvm.loop !14

24:                                               ; preds = %6
  store i32 0, ptr %2, align 4
  store i32 1, ptr %5, align 4
  br label %25

25:                                               ; preds = %24, %17
  call void @llvm.lifetime.end.p0(i64 8, ptr %4) #2
  %26 = load i32, ptr %2, align 4
  ret i32 %26
}