; Function Attrs: nofree norecurse nosync nounwind memory(none) uwtable
define i32 @avcodec_pix_fmt_to_codec_tag(i32 noundef %0) local_unnamed_addr #0 {
  br label %2

2:                                                ; preds = %1, %8
  %3 = phi i32 [ 0, %1 ], [ %10, %8 ]
  %.08 = phi ptr [ @raw_pix_fmt_tags, %1 ], [ %9, %8 ]
  %4 = icmp eq i32 %3, %0
  br i1 %4, label %5, label %8

5:                                                ; preds = %2
  %6 = getelementptr inbounds nuw i8, ptr %.08, i64 4
  %7 = load i32, ptr %6, align 4, !tbaa !4
  br label %.loopexit

8:                                                ; preds = %2
  %9 = getelementptr inbounds nuw i8, ptr %.08, i64 8
  %10 = load i32, ptr %9, align 4, !tbaa !9
  %11 = icmp sgt i32 %10, -1
  br i1 %11, label %2, label %.loopexit, !llvm.loop !10

.loopexit:                                        ; preds = %8, %5
  %.05 = phi i32 [ %7, %5 ], [ 0, %8 ]
  ret i32 %.05
}